target datalayout = "e-m:e-p270:32:32-p271:32:32-p272:64:64-i64:64-i128:128-f80:128-n8:16:32:64-S128"
target triple = "x86_64-pc-linux-gnu"

%struct.anon = type { i64, ptr, double, double }

@.str.37 = private unnamed_addr constant [19 x i8] c"N_VGetArrayPointer\00", align 1
@stderr = external global ptr, align 8
@.str.39 = private unnamed_addr constant [55 x i8] c"\0ASUNDIALS_ERROR: %s() failed - returned NULL pointer\0A\0A\00", align 1
@.str.40 = private unnamed_addr constant [46 x i8] c"\0ASUNDIALS_ERROR: %s() failed with flag = %d\0A\0A\00", align 1
@.str.41 = private unnamed_addr constant [53 x i8] c"\0AMEMORY_ERROR: %s() failed - returned NULL pointer\0A\0A\00", align 1

; Function Attrs: nounwind uwtable
define internal i32 @check_flag(ptr noundef %0, ptr noundef %1, i32 noundef %2) #0 {
  %4 = alloca i32, align 4
  %5 = alloca ptr, align 8
  %6 = alloca ptr, align 8
  %7 = alloca i32, align 4
  %8 = alloca ptr, align 8
  %9 = alloca i32, align 4
  store ptr %0, ptr %5, align 8, !tbaa !8
  store ptr %1, ptr %6, align 8, !tbaa !29
  store i32 %2, ptr %7, align 4, !tbaa !12
  call void @llvm.lifetime.start.p0(i64 8, ptr %8) #7
  %10 = load i32, ptr %7, align 4, !tbaa !12
  %11 = icmp eq i32 %10, 0
  br i1 %11, label %12, label %19

12:                                               ; preds = %3
  %13 = load ptr, ptr %5, align 8, !tbaa !8
  %14 = icmp eq ptr %13, null
  br i1 %14, label %15, label %19

15:                                               ; preds = %12
  %16 = load ptr, ptr @stderr, align 8, !tbaa !27
  %17 = load ptr, ptr %6, align 8, !tbaa !29
  %18 = call i32 (ptr, ptr, ...) @fprintf(ptr noundef %16, ptr noundef @.str.39, ptr noundef %17) #7
  store i32 1, ptr %4, align 4
  store i32 1, ptr %9, align 4
  br label %47

19:                                               ; preds = %12, %3
  %20 = load i32, ptr %7, align 4, !tbaa !12
  %21 = icmp eq i32 %20, 1
  br i1 %21, label %22, label %34

22:                                               ; preds = %19
  %23 = load ptr, ptr %5, align 8, !tbaa !8
  store ptr %23, ptr %8, align 8, !tbaa !31
  %24 = load ptr, ptr %8, align 8, !tbaa !31
  %25 = load i32, ptr %24, align 4, !tbaa !12
  %26 = icmp slt i32 %25, 0
  br i1 %26, label %27, label %33

27:                                               ; preds = %22
  %28 = load ptr, ptr @stderr, align 8, !tbaa !27
  %29 = load ptr, ptr %6, align 8, !tbaa !29
  %30 = load ptr, ptr %8, align 8, !tbaa !31
  %31 = load i32, ptr %30, align 4, !tbaa !12
  %32 = call i32 (ptr, ptr, ...) @fprintf(ptr noundef %28, ptr noundef @.str.40, ptr noundef %29, i32 noundef %31) #7
  store i32 1, ptr %4, align 4
  store i32 1, ptr %9, align 4
  br label %47

33:                                               ; preds = %22
  br label %45

34:                                               ; preds = %19
  %35 = load i32, ptr %7, align 4, !tbaa !12
  %36 = icmp eq i32 %35, 2
  br i1 %36, label %37, label %44

37:                                               ; preds = %34
  %38 = load ptr, ptr %5, align 8, !tbaa !8
  %39 = icmp eq ptr %38, null
  br i1 %39, label %40, label %44

40:                                               ; preds = %37
  %41 = load ptr, ptr @stderr, align 8, !tbaa !27
  %42 = load ptr, ptr %6, align 8, !tbaa !29
  %43 = call i32 (ptr, ptr, ...) @fprintf(ptr noundef %41, ptr noundef @.str.41, ptr noundef %42) #7
  store i32 1, ptr %4, align 4
  store i32 1, ptr %9, align 4
  br label %47

44:                                               ; preds = %37, %34
  br label %45

45:                                               ; preds = %44, %33
  br label %46

46:                                               ; preds = %45
  store i32 0, ptr %4, align 4
  store i32 1, ptr %9, align 4
  br label %47

47:                                               ; preds = %46, %40, %27, %15
  call void @llvm.lifetime.end.p0(i64 8, ptr %8) #7
  %48 = load i32, ptr %4, align 4
  ret i32 %48
}

; Function Attrs: nounwind uwtable
define internal i32 @f(double noundef %0, ptr noundef %1, ptr noundef %2, ptr noundef %3) #0 {
  %5 = alloca i32, align 4
  %6 = alloca double, align 8
  %7 = alloca ptr, align 8
  %8 = alloca ptr, align 8
  %9 = alloca ptr, align 8
  %10 = alloca ptr, align 8
  %11 = alloca i64, align 8
  %12 = alloca double, align 8
  %13 = alloca ptr, align 8
  %14 = alloca ptr, align 8
  %15 = alloca ptr, align 8
  %16 = alloca double, align 8
  %17 = alloca double, align 8
  %18 = alloca i64, align 8
  %19 = alloca i32, align 4
  store double %0, ptr %6, align 8, !tbaa !4
  store ptr %1, ptr %7, align 8, !tbaa !14
  store ptr %2, ptr %8, align 8, !tbaa !14
  store ptr %3, ptr %9, align 8, !tbaa !8
  call void @llvm.lifetime.start.p0(i64 8, ptr %10) #7
  %20 = load ptr, ptr %9, align 8, !tbaa !8
  store ptr %20, ptr %10, align 8, !tbaa !8
  call void @llvm.lifetime.start.p0(i64 8, ptr %11) #7
  %21 = load ptr, ptr %10, align 8, !tbaa !8
  %22 = getelementptr inbounds nuw %struct.anon, ptr %21, i32 0, i32 0
  %23 = load i64, ptr %22, align 8, !tbaa !20
  store i64 %23, ptr %11, align 8, !tbaa !10
  call void @llvm.lifetime.start.p0(i64 8, ptr %12) #7
  %24 = load ptr, ptr %10, align 8, !tbaa !8
  %25 = getelementptr inbounds nuw %struct.anon, ptr %24, i32 0, i32 2
  %26 = load double, ptr %25, align 8, !tbaa !22
  store double %26, ptr %12, align 8, !tbaa !4
  call void @llvm.lifetime.start.p0(i64 8, ptr %13) #7
  %27 = load ptr, ptr %10, align 8, !tbaa !8
  %28 = getelementptr inbounds nuw %struct.anon, ptr %27, i32 0, i32 1
  %29 = load ptr, ptr %28, align 8, !tbaa !24
  store ptr %29, ptr %13, align 8, !tbaa !18
  call void @llvm.lifetime.start.p0(i64 8, ptr %14) #7
  store ptr null, ptr %14, align 8, !tbaa !18
  call void @llvm.lifetime.start.p0(i64 8, ptr %15) #7
  store ptr null, ptr %15, align 8, !tbaa !18
  call void @llvm.lifetime.start.p0(i64 8, ptr %16) #7
  call void @llvm.lifetime.start.p0(i64 8, ptr %17) #7
  call void @llvm.lifetime.start.p0(i64 8, ptr %18) #7
  %30 = load ptr, ptr %7, align 8, !tbaa !14
  %31 = call ptr @N_VGetArrayPointer(ptr noundef %30)
  store ptr %31, ptr %14, align 8, !tbaa !18
  %32 = load ptr, ptr %14, align 8, !tbaa !18
  %33 = call i32 @check_flag(ptr noundef %32, ptr noundef @.str.37, i32 noundef 0)
  %34 = icmp ne i32 %33, 0
  br i1 %34, label %35, label %36

35:                                               ; preds = %4
  store i32 1, ptr %5, align 4
  store i32 1, ptr %19, align 4
  br label %175

36:                                               ; preds = %4
  %37 = load ptr, ptr %8, align 8, !tbaa !14
  %38 = call ptr @N_VGetArrayPointer(ptr noundef %37)
  store ptr %38, ptr %15, align 8, !tbaa !18
  %39 = load ptr, ptr %15, align 8, !tbaa !18
  %40 = call i32 @check_flag(ptr noundef %39, ptr noundef @.str.37, i32 noundef 0)
  %41 = icmp ne i32 %40, 0
  br i1 %41, label %42, label %43

42:                                               ; preds = %36
  store i32 1, ptr %5, align 4
  store i32 1, ptr %19, align 4
  br label %175

43:                                               ; preds = %36
  %44 = load ptr, ptr %8, align 8, !tbaa !14
  call void @N_VConst(double noundef 0.000000e+00, ptr noundef %44)
  store i64 1, ptr %18, align 8, !tbaa !10
  br label %45

45:                                               ; preds = %171, %43
  %46 = load i64, ptr %18, align 8, !tbaa !10
  %47 = load i64, ptr %11, align 8, !tbaa !10
  %48 = sub nsw i64 %47, 1
  %49 = icmp slt i64 %46, %48
  br i1 %49, label %50, label %174

50:                                               ; preds = %45
  %51 = load ptr, ptr %13, align 8, !tbaa !18
  %52 = load i64, ptr %18, align 8, !tbaa !10
  %53 = getelementptr inbounds double, ptr %51, i64 %52
  %54 = load double, ptr %53, align 8, !tbaa !4
  %55 = load ptr, ptr %13, align 8, !tbaa !18
  %56 = load i64, ptr %18, align 8, !tbaa !10
  %57 = sub nsw i64 %56, 1
  %58 = getelementptr inbounds double, ptr %55, i64 %57
  %59 = load double, ptr %58, align 8, !tbaa !4
  %60 = fsub double %54, %59
  store double %60, ptr %16, align 8, !tbaa !4
  %61 = load ptr, ptr %13, align 8, !tbaa !18
  %62 = load i64, ptr %18, align 8, !tbaa !10
  %63 = add nsw i64 %62, 1
  %64 = getelementptr inbounds double, ptr %61, i64 %63
  %65 = load double, ptr %64, align 8, !tbaa !4
  %66 = load ptr, ptr %13, align 8, !tbaa !18
  %67 = load i64, ptr %18, align 8, !tbaa !10
  %68 = getelementptr inbounds double, ptr %66, i64 %67
  %69 = load double, ptr %68, align 8, !tbaa !4
  %70 = fsub double %65, %69
  store double %70, ptr %17, align 8, !tbaa !4
  %71 = load ptr, ptr %14, align 8, !tbaa !18
  %72 = load i64, ptr %18, align 8, !tbaa !10
  %73 = sub nsw i64 %72, 1
  %74 = getelementptr inbounds double, ptr %71, i64 %73
  %75 = load double, ptr %74, align 8, !tbaa !4
  %76 = load double, ptr %12, align 8, !tbaa !4
  %77 = fmul double %75, %76
  %78 = fmul double %77, 2.000000e+00
  %79 = load double, ptr %16, align 8, !tbaa !4
  %80 = load double, ptr %16, align 8, !tbaa !4
  %81 = load double, ptr %17, align 8, !tbaa !4
  %82 = fadd double %80, %81
  %83 = fmul double %79, %82
  %84 = fdiv double %78, %83
  %85 = load ptr, ptr %14, align 8, !tbaa !18
  %86 = load i64, ptr %18, align 8, !tbaa !10
  %87 = getelementptr inbounds double, ptr %85, i64 %86
  %88 = load double, ptr %87, align 8, !tbaa !4
  %89 = load double, ptr %12, align 8, !tbaa !4
  %90 = fmul double %88, %89
  %91 = fmul double %90, 2.000000e+00
  %92 = load double, ptr %16, align 8, !tbaa !4
  %93 = load double, ptr %17, align 8, !tbaa !4
  %94 = fmul double %92, %93
  %95 = fdiv double %91, %94
  %96 = fsub double %84, %95
  %97 = load ptr, ptr %14, align 8, !tbaa !18
  %98 = load i64, ptr %18, align 8, !tbaa !10
  %99 = add nsw i64 %98, 1
  %100 = getelementptr inbounds double, ptr %97, i64 %99
  %101 = load double, ptr %100, align 8, !tbaa !4
  %102 = load double, ptr %12, align 8, !tbaa !4
  %103 = fmul double %101, %102
  %104 = fmul double %103, 2.000000e+00
  %105 = load double, ptr %17, align 8, !tbaa !4
  %106 = load double, ptr %16, align 8, !tbaa !4
  %107 = load double, ptr %17, align 8, !tbaa !4
  %108 = fadd double %106, %107
  %109 = fmul double %105, %108
  %110 = fdiv double %104, %109
  %111 = fadd double %96, %110
  %112 = load ptr, ptr %13, align 8, !tbaa !18
  %113 = load i64, ptr %18, align 8, !tbaa !10
  %114 = getelementptr inbounds double, ptr %112, i64 %113
  %115 = load double, ptr %114, align 8, !tbaa !4
  %116 = fsub double %115, 2.500000e-01
  %117 = fmul double -2.000000e+02, %116
  %118 = load ptr, ptr %13, align 8, !tbaa !18
  %119 = load i64, ptr %18, align 8, !tbaa !10
  %120 = getelementptr inbounds double, ptr %118, i64 %119
  %121 = load double, ptr %120, align 8, !tbaa !4
  %122 = fsub double %121, 2.500000e-01
  %123 = fmul double %117, %122
  %124 = call double @exp(double noundef %123) #7, !tbaa !12
  %125 = call double @llvm.fmuladd.f64(double 2.000000e+00, double %124, double %111)
  %126 = load ptr, ptr %13, align 8, !tbaa !18
  %127 = load i64, ptr %18, align 8, !tbaa !10
  %128 = getelementptr inbounds double, ptr %126, i64 %127
  %129 = load double, ptr %128, align 8, !tbaa !4
  %130 = fsub double %129, 0x3FE6666666666666
  %131 = fmul double -4.000000e+02, %130
  %132 = load ptr, ptr %13, align 8, !tbaa !18
  %133 = load i64, ptr %18, align 8, !tbaa !10
  %134 = getelementptr inbounds double, ptr %132, i64 %133
  %135 = load double, ptr %134, align 8, !tbaa !4
  %136 = fsub double %135, 0x3FE6666666666666
  %137 = fmul double %131, %136
  %138 = call double @exp(double noundef %137) #7, !tbaa !12
  %139 = fsub double %125, %138
  %140 = load ptr, ptr %13, align 8, !tbaa !18
  %141 = load i64, ptr %18, align 8, !tbaa !10
  %142 = getelementptr inbounds double, ptr %140, i64 %141
  %143 = load double, ptr %142, align 8, !tbaa !4
  %144 = fsub double %143, 4.000000e-01
  %145 = fmul double -5.000000e+02, %144
  %146 = load ptr, ptr %13, align 8, !tbaa !18
  %147 = load i64, ptr %18, align 8, !tbaa !10
  %148 = getelementptr inbounds double, ptr %146, i64 %147
  %149 = load double, ptr %148, align 8, !tbaa !4
  %150 = fsub double %149, 4.000000e-01
  %151 = fmul double %145, %150
  %152 = call double @exp(double noundef %151) #7, !tbaa !12
  %153 = fadd double %139, %152
  %154 = load ptr, ptr %13, align 8, !tbaa !18
  %155 = load i64, ptr %18, align 8, !tbaa !10
  %156 = getelementptr inbounds double, ptr %154, i64 %155
  %157 = load double, ptr %156, align 8, !tbaa !4
  %158 = fsub double %157, 5.500000e-01
  %159 = fmul double -6.000000e+02, %158
  %160 = load ptr, ptr %13, align 8, !tbaa !18
  %161 = load i64, ptr %18, align 8, !tbaa !10
  %162 = getelementptr inbounds double, ptr %160, i64 %161
  %163 = load double, ptr %162, align 8, !tbaa !4
  %164 = fsub double %163, 5.500000e-01
  %165 = fmul double %159, %164
  %166 = call double @exp(double noundef %165) #7, !tbaa !12
  %167 = call double @llvm.fmuladd.f64(double -2.000000e+00, double %166, double %153)
  %168 = load ptr, ptr %15, align 8, !tbaa !18
  %169 = load i64, ptr %18, align 8, !tbaa !10
  %170 = getelementptr inbounds double, ptr %168, i64 %169
  store double %167, ptr %170, align 8, !tbaa !4
  br label %171

171:                                              ; preds = %50
  %172 = load i64, ptr %18, align 8, !tbaa !10
  %173 = add nsw i64 %172, 1
  store i64 %173, ptr %18, align 8, !tbaa !10
  br label %45

174:                                              ; preds = %45
  store i32 0, ptr %5, align 4
  store i32 1, ptr %19, align 4
  br label %175

175:                                              ; preds = %174, %42, %35
  call void @llvm.lifetime.end.p0(i64 8, ptr %18) #7
  call void @llvm.lifetime.end.p0(i64 8, ptr %17) #7
  call void @llvm.lifetime.end.p0(i64 8, ptr %16) #7
  call void @llvm.lifetime.end.p0(i64 8, ptr %15) #7
  call void @llvm.lifetime.end.p0(i64 8, ptr %14) #7
  call void @llvm.lifetime.end.p0(i64 8, ptr %13) #7
  call void @llvm.lifetime.end.p0(i64 8, ptr %12) #7
  call void @llvm.lifetime.end.p0(i64 8, ptr %11) #7
  call void @llvm.lifetime.end.p0(i64 8, ptr %10) #7
  %176 = load i32, ptr %5, align 4
  ret i32 %176
}