; Function Attrs: nounwind uwtable
define internal range(i32 0, 2) i32 @f(double %0, ptr noundef %1, ptr noundef %2, ptr noundef readonly captures(none) %3) #0 {
  %5 = load i64, ptr %3, align 8, !tbaa !9
  %6 = getelementptr inbounds nuw i8, ptr %3, i64 16
  %7 = load double, ptr %6, align 8, !tbaa !14
  %8 = getelementptr inbounds nuw i8, ptr %3, i64 8
  %9 = load ptr, ptr %8, align 8, !tbaa !16
  %10 = tail call ptr @N_VGetArrayPointer(ptr noundef %1) #11
  %11 = icmp eq ptr %10, null
  br i1 %11, label %.loopexit.sink.split, label %12

12:                                               ; preds = %4
  %13 = tail call ptr @N_VGetArrayPointer(ptr noundef %2) #11
  %14 = icmp eq ptr %13, null
  br i1 %14, label %.loopexit.sink.split, label %15

15:                                               ; preds = %12
  tail call void @N_VConst(double noundef 0.000000e+00, ptr noundef %2) #11
  %16 = icmp sgt i64 %5, 2
  br i1 %16, label %.lr.ph.preheader, label %.loopexit

.lr.ph.preheader:                                 ; preds = %15
  %17 = add nsw i64 %5, -2
  br label %.lr.ph

.lr.ph:                                           ; preds = %.lr.ph.preheader, %.lr.ph
  %.063 = phi i64 [ %24, %.lr.ph ], [ 1, %.lr.ph.preheader ]
  %18 = getelementptr inbounds nuw double, ptr %9, i64 %.063
  %19 = load double, ptr %18, align 8, !tbaa !17
  %20 = add nsw i64 %.063, -1
  %21 = getelementptr inbounds double, ptr %9, i64 %20
  %22 = load double, ptr %21, align 8, !tbaa !17
  %23 = fsub double %19, %22
  %24 = add nuw nsw i64 %.063, 1
  %25 = getelementptr inbounds nuw double, ptr %9, i64 %24
  %26 = load double, ptr %25, align 8, !tbaa !17
  %27 = fsub double %26, %19
  %28 = getelementptr inbounds double, ptr %10, i64 %20
  %29 = load double, ptr %28, align 8, !tbaa !17
  %30 = fmul double %7, %29
  %31 = fmul double %30, 2.000000e+00
  %32 = fadd double %23, %27
  %33 = fmul double %23, %32
  %34 = fdiv double %31, %33
  %35 = getelementptr inbounds nuw double, ptr %10, i64 %.063
  %36 = load double, ptr %35, align 8, !tbaa !17
  %37 = fmul double %7, %36
  %38 = fmul double %37, 2.000000e+00
  %39 = fmul double %23, %27
  %40 = fdiv double %38, %39
  %41 = fsub double %34, %40
  %42 = getelementptr inbounds nuw double, ptr %10, i64 %24
  %43 = load double, ptr %42, align 8, !tbaa !17
  %44 = fmul double %7, %43
  %45 = fmul double %44, 2.000000e+00
  %46 = fmul double %27, %32
  %47 = fdiv double %45, %46
  %48 = fadd double %41, %47
  %49 = fadd double %19, -2.500000e-01
  %50 = fmul double %49, -2.000000e+02
  %51 = fmul double %49, %50
  %52 = tail call double @exp(double noundef %51) #11, !tbaa !21
  %53 = tail call double @llvm.fmuladd.f64(double %52, double 2.000000e+00, double %48)
  %54 = fadd double %19, 0xBFE6666666666666
  %55 = fmul double %54, -4.000000e+02
  %56 = fmul double %54, %55
  %57 = tail call double @exp(double noundef %56) #11, !tbaa !21
  %58 = fsub double %53, %57
  %59 = fadd double %19, -4.000000e-01
  %60 = fmul double %59, -5.000000e+02
  %61 = fmul double %59, %60
  %62 = tail call double @exp(double noundef %61) #11, !tbaa !21
  %63 = fadd double %62, %58
  %64 = fadd double %19, -5.500000e-01
  %65 = fmul double %64, -6.000000e+02
  %66 = fmul double %64, %65
  %67 = tail call double @exp(double noundef %66) #11, !tbaa !21
  %68 = tail call double @llvm.fmuladd.f64(double %67, double -2.000000e+00, double %63)
  %69 = getelementptr inbounds nuw double, ptr %13, i64 %.063
  store double %68, ptr %69, align 8, !tbaa !17
  %exitcond.not = icmp eq i64 %.063, %17
  br i1 %exitcond.not, label %.loopexit, label %.lr.ph

.loopexit.sink.split:                             ; preds = %12, %4
  %70 = load ptr, ptr @stderr, align 8, !tbaa !4
  %71 = tail call i32 (ptr, ptr, ...) @fprintf(ptr noundef %70, ptr noundef nonnull @.str.39, ptr noundef nonnull @.str.37) #12
  br label %.loopexit

.loopexit:                                        ; preds = %.lr.ph, %.loopexit.sink.split, %15
  %.055 = phi i32 [ 0, %15 ], [ 1, %.loopexit.sink.split ], [ 0, %.lr.ph ]
  ret i32 %.055
}